; Function Attrs: mustprogress nounwind uwtable
define hidden void @_ZNK5clang7targets13PPCTargetInfo22addP10SpecificFeaturesERN4llvm9StringMapIbNS2_15MallocAllocatorEEE(ptr nocapture nonnull readnone align 8 %0, ptr noundef nonnull align 8 dereferenceable(24) %1) local_unnamed_addr #0 align 2 {
  %3 = tail call noundef i32 @_ZN4llvm13StringMapImpl4hashENS_9StringRefE(ptr nonnull @.str.125, i64 3) #15
  %4 = tail call { ptr, i8 } @_ZN4llvm9StringMapIbNS_15MallocAllocatorEE21try_emplace_with_hashIJEEESt4pairINS_17StringMapIteratorIbEEbENS_9StringRefEjDpOT_(ptr noundef nonnull align 8 dereferenceable(24) %1, ptr nonnull @.str.125, i64 3, i32 noundef %3)
  %.fca.0.extract.i = extractvalue { ptr, i8 } %4, 0
  %5 = load ptr, ptr %.fca.0.extract.i, align 8
  %6 = getelementptr inbounds nuw i8, ptr %5, i64 8
  store i8 0, ptr %6, align 1
  %7 = tail call noundef i32 @_ZN4llvm13StringMapImpl4hashENS_9StringRefE(ptr nonnull @.str.155, i64 20) #15
  %8 = tail call { ptr, i8 } @_ZN4llvm9StringMapIbNS_15MallocAllocatorEE21try_emplace_with_hashIJEEESt4pairINS_17StringMapIteratorIbEEbENS_9StringRefEjDpOT_(ptr noundef nonnull align 8 dereferenceable(24) %1, ptr nonnull @.str.155, i64 20, i32 noundef %7)
  %.fca.0.extract.i7 = extractvalue { ptr, i8 } %8, 0
  %9 = load ptr, ptr %.fca.0.extract.i7, align 8
  %10 = getelementptr inbounds nuw i8, ptr %9, i64 8
  store i8 1, ptr %10, align 1
  %11 = tail call noundef i32 @_ZN4llvm13StringMapImpl4hashENS_9StringRefE(ptr nonnull @.str.156, i64 3) #15
  %12 = tail call { ptr, i8 } @_ZN4llvm9StringMapIbNS_15MallocAllocatorEE21try_emplace_with_hashIJEEESt4pairINS_17StringMapIteratorIbEEbENS_9StringRefEjDpOT_(ptr noundef nonnull align 8 dereferenceable(24) %1, ptr nonnull @.str.156, i64 3, i32 noundef %11)
  %.fca.0.extract.i8 = extractvalue { ptr, i8 } %12, 0
  %13 = load ptr, ptr %.fca.0.extract.i8, align 8
  %14 = getelementptr inbounds nuw i8, ptr %13, i64 8
  store i8 1, ptr %14, align 1
  %15 = tail call noundef i32 @_ZN4llvm13StringMapImpl4hashENS_9StringRefE(ptr nonnull @.str.157, i64 14) #15
  %16 = tail call { ptr, i8 } @_ZN4llvm9StringMapIbNS_15MallocAllocatorEE21try_emplace_with_hashIJEEESt4pairINS_17StringMapIteratorIbEEbENS_9StringRefEjDpOT_(ptr noundef nonnull align 8 dereferenceable(24) %1, ptr nonnull @.str.157, i64 14, i32 noundef %15)
  %.fca.0.extract.i9 = extractvalue { ptr, i8 } %16, 0
  %17 = load ptr, ptr %.fca.0.extract.i9, align 8
  %18 = getelementptr inbounds nuw i8, ptr %17, i64 8
  store i8 1, ptr %18, align 1
  %19 = tail call noundef i32 @_ZN4llvm13StringMapImpl4hashENS_9StringRefE(ptr nonnull @.str.158, i64 17) #15
  %20 = tail call { ptr, i8 } @_ZN4llvm9StringMapIbNS_15MallocAllocatorEE21try_emplace_with_hashIJEEESt4pairINS_17StringMapIteratorIbEEbENS_9StringRefEjDpOT_(ptr noundef nonnull align 8 dereferenceable(24) %1, ptr nonnull @.str.158, i64 17, i32 noundef %19)
  %.fca.0.extract.i10 = extractvalue { ptr, i8 } %20, 0
  %21 = load ptr, ptr %.fca.0.extract.i10, align 8
  %22 = getelementptr inbounds nuw i8, ptr %21, i64 8
  store i8 1, ptr %22, align 1
  %23 = tail call noundef i32 @_ZN4llvm13StringMapImpl4hashENS_9StringRefE(ptr nonnull @.str.159, i64 13) #15
  %24 = tail call { ptr, i8 } @_ZN4llvm9StringMapIbNS_15MallocAllocatorEE21try_emplace_with_hashIJEEESt4pairINS_17StringMapIteratorIbEEbENS_9StringRefEjDpOT_(ptr noundef nonnull align 8 dereferenceable(24) %1, ptr nonnull @.str.159, i64 13, i32 noundef %23)
  %.fca.0.extract.i11 = extractvalue { ptr, i8 } %24, 0
  %25 = load ptr, ptr %.fca.0.extract.i11, align 8
  %26 = getelementptr inbounds nuw i8, ptr %25, i64 8
  store i8 1, ptr %26, align 1
  %27 = tail call noundef i32 @_ZN4llvm13StringMapImpl4hashENS_9StringRefE(ptr nonnull @.str.160, i64 20) #15
  %28 = tail call { ptr, i8 } @_ZN4llvm9StringMapIbNS_15MallocAllocatorEE21try_emplace_with_hashIJEEESt4pairINS_17StringMapIteratorIbEEbENS_9StringRefEjDpOT_(ptr noundef nonnull align 8 dereferenceable(24) %1, ptr nonnull @.str.160, i64 20, i32 noundef %27)
  %.fca.0.extract.i12 = extractvalue { ptr, i8 } %28, 0
  %29 = load ptr, ptr %.fca.0.extract.i12, align 8
  %30 = getelementptr inbounds nuw i8, ptr %29, i64 8
  store i8 1, ptr %30, align 1
  ret void
}